target datalayout = "e-m:e-p270:32:32-p271:32:32-p272:64:64-i64:64-i128:128-f80:128-n8:16:32:64-S128"
target triple = "x86_64-pc-linux-gnu"

%struct.ssl_connection_st = type { %struct.ssl_st, ptr, i32, ptr, ptr, ptr, i32, ptr, i32, i32, i32, i32, %struct.OSSL_TIME, %struct.OSSL_TIME, %struct.ossl_statem_st, i32, ptr, ptr, i64, i64, i64, %struct.ossl_quic_tls_callbacks_st, ptr, ptr, %struct.anon, ptr, ptr, ptr, i32, ptr, %struct.ssl_dane_st, ptr, ptr, ptr, ptr, i32, [64 x i8], [64 x i8], [64 x i8], [64 x i8], [64 x i8], [64 x i8], [64 x i8], [64 x i8], [64 x i8], [64 x i8], [64 x i8], [64 x i8], ptr, [64 x i8], i64, i32, i64, [32 x i8], ptr, ptr, ptr, i64, ptr, [32 x i8], i64, i32, ptr, ptr, i32, i32, ptr, ptr, ptr, ptr, ptr, i64, ptr, ptr, i64, i32, i32, i32, i64, i32, i32, i64, i64, i64, %struct.anon.1, ptr, i32, ptr, ptr, ptr, i32, ptr, ptr, ptr, i32, i32, i32, i32, ptr, i64, i32, ptr, %struct.srp_ctx_st, ptr, %struct.record_layer_st, ptr, ptr, ptr, ptr, i64, i32, i32, i32, i64, i64, i64, ptr, ptr, ptr, ptr, ptr, i64, ptr, i64, ptr, i64 }
%struct.ssl_st = type { i32, ptr, ptr, ptr, %struct.CRYPTO_REF_COUNT, ptr, %struct.crypto_ex_data_st }
%struct.CRYPTO_REF_COUNT = type { i32 }
%struct.crypto_ex_data_st = type { ptr, ptr }
%struct.OSSL_TIME = type { i64 }
%struct.ossl_statem_st = type { i32, i32, i32, i32, i32, i32, i32, i32, i32, i32, i32, i32, i32, ptr, ptr, ptr, i8 }
%struct.ossl_quic_tls_callbacks_st = type { ptr, ptr, ptr, ptr, ptr, ptr }
%struct.anon = type { i64, [32 x i8], [32 x i8], ptr, ptr, i32, i32, i32, i32, [2 x i8], i32, i32, i32, i32, %struct.anon.0, [64 x i8], i64, [64 x i8], i64, i32, i32, ptr, i64, ptr, i64, i32, i8, i8, i16, ptr, i16 }
%struct.anon.0 = type { [128 x i8], i64, [128 x i8], i64, i64, i32, ptr, ptr, [4 x ptr], [4 x i16], i64, i32, ptr, i64, ptr, i64, ptr, ptr, ptr, i32, i64, ptr, i32, ptr, i64, ptr, i64, ptr, i64, ptr, ptr, ptr, ptr, i64, i64, ptr, ptr, i32, i32, i32, i32 }
%struct.ssl_dane_st = type { ptr, ptr, ptr, ptr, ptr, i32, i32, i32, i64 }
%struct.anon.1 = type { [29 x i8], ptr, ptr, ptr, i32, ptr, i16, i32, %struct.anon.2, i32, i32, i64, ptr, i64, ptr, i64, ptr, i64, ptr, i64, ptr, i64, ptr, ptr, ptr, ptr, ptr, ptr, ptr, i64, ptr, i64, i32, i32, i32, i32, ptr, i64, i32, i8, i32, [4 x i32], i32, i8, i8, i8, i8 }
%struct.anon.2 = type { ptr, ptr, ptr, i64 }
%struct.srp_ctx_st = type { ptr, ptr, ptr, ptr, ptr, ptr, ptr, ptr, ptr, ptr, ptr, ptr, ptr, ptr, i32, i64 }
%struct.record_layer_st = type { ptr, ptr, ptr, ptr, ptr, ptr, ptr, ptr, i64, i32, i64, [4 x i8], i64, i64, i8, ptr, i32, ptr, ptr, ptr, i64, i64, i64, i64, [32 x %struct.tls_record_st] }
%struct.tls_record_st = type { ptr, i32, i8, ptr, ptr, i64, i64, i16, [8 x i8] }

@.str = private unnamed_addr constant [24 x i8] c"../openssl/ssl/s3_enc.c\00", align 1
@__func__.ssl3_change_cipher_state = private unnamed_addr constant [25 x i8] c"ssl3_change_cipher_state\00", align 1

; Function Attrs: nounwind uwtable
define i32 @ssl3_change_cipher_state(ptr noundef %0, i32 noundef %1) #0 {
  %3 = alloca i32, align 4
  %4 = alloca ptr, align 8
  %5 = alloca i32, align 4
  %6 = alloca ptr, align 8
  %7 = alloca ptr, align 8
  %8 = alloca i64, align 8
  %9 = alloca ptr, align 8
  %10 = alloca ptr, align 8
  %11 = alloca ptr, align 8
  %12 = alloca ptr, align 8
  %13 = alloca ptr, align 8
  %14 = alloca i32, align 4
  %15 = alloca i64, align 8
  %16 = alloca i64, align 8
  %17 = alloca i64, align 8
  %18 = alloca i32, align 4
  %19 = alloca i32, align 4
  store ptr %0, ptr %4, align 8, !tbaa !3
  store i32 %1, ptr %5, align 4, !tbaa !8
  call void @llvm.lifetime.start.p0(i64 8, ptr %6) #7
  call void @llvm.lifetime.start.p0(i64 8, ptr %7) #7
  call void @llvm.lifetime.start.p0(i64 8, ptr %8) #7
  call void @llvm.lifetime.start.p0(i64 8, ptr %9) #7
  call void @llvm.lifetime.start.p0(i64 8, ptr %10) #7
  call void @llvm.lifetime.start.p0(i64 8, ptr %11) #7
  call void @llvm.lifetime.start.p0(i64 8, ptr %12) #7
  store ptr null, ptr %12, align 8, !tbaa !10
  call void @llvm.lifetime.start.p0(i64 8, ptr %13) #7
  call void @llvm.lifetime.start.p0(i64 4, ptr %14) #7
  call void @llvm.lifetime.start.p0(i64 8, ptr %15) #7
  call void @llvm.lifetime.start.p0(i64 8, ptr %16) #7
  call void @llvm.lifetime.start.p0(i64 8, ptr %17) #7
  call void @llvm.lifetime.start.p0(i64 4, ptr %18) #7
  %20 = load i32, ptr %5, align 4, !tbaa !8
  %21 = and i32 %20, 1
  %22 = icmp ne i32 %21, 0
  %23 = select i1 %22, i32 0, i32 1
  store i32 %23, ptr %18, align 4, !tbaa !8
  %24 = load ptr, ptr %4, align 8, !tbaa !3
  %25 = getelementptr inbounds nuw %struct.ssl_connection_st, ptr %24, i32 0, i32 24
  %26 = getelementptr inbounds nuw %struct.anon, ptr %25, i32 0, i32 14
  %27 = getelementptr inbounds nuw %struct.anon.0, ptr %26, i32 0, i32 17
  %28 = load ptr, ptr %27, align 8, !tbaa !12
  store ptr %28, ptr %11, align 8, !tbaa !72
  %29 = load ptr, ptr %4, align 8, !tbaa !3
  %30 = getelementptr inbounds nuw %struct.ssl_connection_st, ptr %29, i32 0, i32 24
  %31 = getelementptr inbounds nuw %struct.anon, ptr %30, i32 0, i32 14
  %32 = getelementptr inbounds nuw %struct.anon.0, ptr %31, i32 0, i32 18
  %33 = load ptr, ptr %32, align 8, !tbaa !73
  store ptr %33, ptr %13, align 8, !tbaa !74
  %34 = load ptr, ptr %13, align 8, !tbaa !74
  %35 = icmp ne ptr %34, null
  %36 = zext i1 %35 to i32
  %37 = icmp ne i32 %36, 0
  %38 = xor i1 %37, true
  %39 = xor i1 %38, true
  %40 = zext i1 %39 to i32
  %41 = sext i32 %40 to i64
  %42 = call i64 @llvm.expect.i64(i64 %41, i64 1)
  %43 = icmp ne i64 %42, 0
  br i1 %43, label %46, label %44

44:                                               ; preds = %2
  call void @ERR_new()
  call void @ERR_set_debug(ptr noundef @.str, i32 noundef 108, ptr noundef @__func__.ssl3_change_cipher_state)
  %45 = load ptr, ptr %4, align 8, !tbaa !3
  call void (ptr, i32, i32, ptr, ...) @ossl_statem_fatal(ptr noundef %45, i32 noundef 80, i32 noundef 786691, ptr noundef null)
  br label %149

46:                                               ; preds = %2
  %47 = load ptr, ptr %4, align 8, !tbaa !3
  %48 = getelementptr inbounds nuw %struct.ssl_connection_st, ptr %47, i32 0, i32 24
  %49 = getelementptr inbounds nuw %struct.anon, ptr %48, i32 0, i32 14
  %50 = getelementptr inbounds nuw %struct.anon.0, ptr %49, i32 0, i32 21
  %51 = load ptr, ptr %50, align 8, !tbaa !75
  store ptr %51, ptr %12, align 8, !tbaa !10
  %52 = load ptr, ptr %4, align 8, !tbaa !3
  %53 = getelementptr inbounds nuw %struct.ssl_connection_st, ptr %52, i32 0, i32 24
  %54 = getelementptr inbounds nuw %struct.anon, ptr %53, i32 0, i32 14
  %55 = getelementptr inbounds nuw %struct.anon.0, ptr %54, i32 0, i32 16
  %56 = load ptr, ptr %55, align 8, !tbaa !76
  store ptr %56, ptr %6, align 8, !tbaa !77
  %57 = load ptr, ptr %13, align 8, !tbaa !74
  %58 = call i32 @EVP_MD_get_size(ptr noundef %57)
  store i32 %58, ptr %14, align 4, !tbaa !8
  %59 = load i32, ptr %14, align 4, !tbaa !8
  %60 = icmp sle i32 %59, 0
  br i1 %60, label %61, label %63

61:                                               ; preds = %46
  call void @ERR_new()
  call void @ERR_set_debug(ptr noundef @.str, i32 noundef 118, ptr noundef @__func__.ssl3_change_cipher_state)
  %62 = load ptr, ptr %4, align 8, !tbaa !3
  call void (ptr, i32, i32, ptr, ...) @ossl_statem_fatal(ptr noundef %62, i32 noundef 80, i32 noundef 786691, ptr noundef null)
  br label %149

63:                                               ; preds = %46
  %64 = load i32, ptr %14, align 4, !tbaa !8
  %65 = sext i32 %64 to i64
  store i64 %65, ptr %8, align 8, !tbaa !78
  %66 = load ptr, ptr %11, align 8, !tbaa !72
  %67 = call i32 @EVP_CIPHER_get_key_length(ptr noundef %66)
  %68 = sext i32 %67 to i64
  store i64 %68, ptr %17, align 8, !tbaa !78
  %69 = load ptr, ptr %11, align 8, !tbaa !72
  %70 = call i32 @EVP_CIPHER_get_iv_length(ptr noundef %69)
  %71 = sext i32 %70 to i64
  store i64 %71, ptr %16, align 8, !tbaa !78
  %72 = load i32, ptr %5, align 4, !tbaa !8
  %73 = icmp eq i32 %72, 18
  br i1 %73, label %77, label %74

74:                                               ; preds = %63
  %75 = load i32, ptr %5, align 4, !tbaa !8
  %76 = icmp eq i32 %75, 33
  br i1 %76, label %77, label %99

77:                                               ; preds = %74, %63
  %78 = load ptr, ptr %6, align 8, !tbaa !77
  %79 = getelementptr inbounds i8, ptr %78, i64 0
  store ptr %79, ptr %7, align 8, !tbaa !77
  %80 = load i64, ptr %8, align 8, !tbaa !78
  %81 = load i64, ptr %8, align 8, !tbaa !78
  %82 = add i64 %80, %81
  store i64 %82, ptr %15, align 8, !tbaa !78
  %83 = load ptr, ptr %6, align 8, !tbaa !77
  %84 = load i64, ptr %15, align 8, !tbaa !78
  %85 = getelementptr inbounds nuw i8, ptr %83, i64 %84
  store ptr %85, ptr %9, align 8, !tbaa !77
  %86 = load i64, ptr %17, align 8, !tbaa !78
  %87 = load i64, ptr %17, align 8, !tbaa !78
  %88 = add i64 %86, %87
  %89 = load i64, ptr %15, align 8, !tbaa !78
  %90 = add i64 %89, %88
  store i64 %90, ptr %15, align 8, !tbaa !78
  %91 = load ptr, ptr %6, align 8, !tbaa !77
  %92 = load i64, ptr %15, align 8, !tbaa !78
  %93 = getelementptr inbounds nuw i8, ptr %91, i64 %92
  store ptr %93, ptr %10, align 8, !tbaa !77
  %94 = load i64, ptr %16, align 8, !tbaa !78
  %95 = load i64, ptr %16, align 8, !tbaa !78
  %96 = add i64 %94, %95
  %97 = load i64, ptr %15, align 8, !tbaa !78
  %98 = add i64 %97, %96
  store i64 %98, ptr %15, align 8, !tbaa !78
  br label %123

99:                                               ; preds = %74
  %100 = load i64, ptr %8, align 8, !tbaa !78
  store i64 %100, ptr %15, align 8, !tbaa !78
  %101 = load ptr, ptr %6, align 8, !tbaa !77
  %102 = load i64, ptr %15, align 8, !tbaa !78
  %103 = getelementptr inbounds nuw i8, ptr %101, i64 %102
  store ptr %103, ptr %7, align 8, !tbaa !77
  %104 = load i64, ptr %8, align 8, !tbaa !78
  %105 = load i64, ptr %17, align 8, !tbaa !78
  %106 = add i64 %104, %105
  %107 = load i64, ptr %15, align 8, !tbaa !78
  %108 = add i64 %107, %106
  store i64 %108, ptr %15, align 8, !tbaa !78
  %109 = load ptr, ptr %6, align 8, !tbaa !77
  %110 = load i64, ptr %15, align 8, !tbaa !78
  %111 = getelementptr inbounds nuw i8, ptr %109, i64 %110
  store ptr %111, ptr %9, align 8, !tbaa !77
  %112 = load i64, ptr %17, align 8, !tbaa !78
  %113 = load i64, ptr %16, align 8, !tbaa !78
  %114 = add i64 %112, %113
  %115 = load i64, ptr %15, align 8, !tbaa !78
  %116 = add i64 %115, %114
  store i64 %116, ptr %15, align 8, !tbaa !78
  %117 = load ptr, ptr %6, align 8, !tbaa !77
  %118 = load i64, ptr %15, align 8, !tbaa !78
  %119 = getelementptr inbounds nuw i8, ptr %117, i64 %118
  store ptr %119, ptr %10, align 8, !tbaa !77
  %120 = load i64, ptr %16, align 8, !tbaa !78
  %121 = load i64, ptr %15, align 8, !tbaa !78
  %122 = add i64 %121, %120
  store i64 %122, ptr %15, align 8, !tbaa !78
  br label %123

123:                                              ; preds = %99, %77
  %124 = load i64, ptr %15, align 8, !tbaa !78
  %125 = load ptr, ptr %4, align 8, !tbaa !3
  %126 = getelementptr inbounds nuw %struct.ssl_connection_st, ptr %125, i32 0, i32 24
  %127 = getelementptr inbounds nuw %struct.anon, ptr %126, i32 0, i32 14
  %128 = getelementptr inbounds nuw %struct.anon.0, ptr %127, i32 0, i32 15
  %129 = load i64, ptr %128, align 8, !tbaa !79
  %130 = icmp ugt i64 %124, %129
  br i1 %130, label %131, label %133

131:                                              ; preds = %123
  call void @ERR_new()
  call void @ERR_set_debug(ptr noundef @.str, i32 noundef 144, ptr noundef @__func__.ssl3_change_cipher_state)
  %132 = load ptr, ptr %4, align 8, !tbaa !3
  call void (ptr, i32, i32, ptr, ...) @ossl_statem_fatal(ptr noundef %132, i32 noundef 80, i32 noundef 786691, ptr noundef null)
  br label %149

133:                                              ; preds = %123
  %134 = load ptr, ptr %4, align 8, !tbaa !3
  %135 = load i32, ptr %18, align 4, !tbaa !8
  %136 = load ptr, ptr %9, align 8, !tbaa !77
  %137 = load i64, ptr %17, align 8, !tbaa !78
  %138 = load ptr, ptr %10, align 8, !tbaa !77
  %139 = load i64, ptr %16, align 8, !tbaa !78
  %140 = load ptr, ptr %7, align 8, !tbaa !77
  %141 = load i64, ptr %8, align 8, !tbaa !78
  %142 = load ptr, ptr %11, align 8, !tbaa !72
  %143 = load ptr, ptr %13, align 8, !tbaa !74
  %144 = load ptr, ptr %12, align 8, !tbaa !10
  %145 = call i32 @ssl_set_new_record_layer(ptr noundef %134, i32 noundef 768, i32 noundef %135, i32 noundef 3, ptr noundef null, i64 noundef 0, ptr noundef %136, i64 noundef %137, ptr noundef %138, i64 noundef %139, ptr noundef %140, i64 noundef %141, ptr noundef %142, i64 noundef 0, i32 noundef 0, ptr noundef %143, ptr noundef %144, ptr noundef null)
  %146 = icmp ne i32 %145, 0
  br i1 %146, label %148, label %147

147:                                              ; preds = %133
  br label %149

148:                                              ; preds = %133
  store i32 1, ptr %3, align 4
  store i32 1, ptr %19, align 4
  br label %150

149:                                              ; preds = %147, %131, %61, %44
  store i32 0, ptr %3, align 4
  store i32 1, ptr %19, align 4
  br label %150

150:                                              ; preds = %149, %148
  call void @llvm.lifetime.end.p0(i64 4, ptr %18) #7
  call void @llvm.lifetime.end.p0(i64 8, ptr %17) #7
  call void @llvm.lifetime.end.p0(i64 8, ptr %16) #7
  call void @llvm.lifetime.end.p0(i64 8, ptr %15) #7
  call void @llvm.lifetime.end.p0(i64 4, ptr %14) #7
  call void @llvm.lifetime.end.p0(i64 8, ptr %13) #7
  call void @llvm.lifetime.end.p0(i64 8, ptr %12) #7
  call void @llvm.lifetime.end.p0(i64 8, ptr %11) #7
  call void @llvm.lifetime.end.p0(i64 8, ptr %10) #7
  call void @llvm.lifetime.end.p0(i64 8, ptr %9) #7
  call void @llvm.lifetime.end.p0(i64 8, ptr %8) #7
  call void @llvm.lifetime.end.p0(i64 8, ptr %7) #7
  call void @llvm.lifetime.end.p0(i64 8, ptr %6) #7
  %151 = load i32, ptr %3, align 4
  ret i32 %151
}