; Function Attrs: nounwind uwtable
define range(i32 0, 2) i32 @ssl3_change_cipher_state(ptr noundef %0, i32 noundef %1) local_unnamed_addr #0 {
  %3 = and i32 %1, 1
  %4 = xor i32 %3, 1
  %5 = getelementptr inbounds nuw i8, ptr %0, i64 880
  %6 = load ptr, ptr %5, align 8, !tbaa !3
  %7 = getelementptr inbounds nuw i8, ptr %0, i64 888
  %8 = load ptr, ptr %7, align 8, !tbaa !69
  %.not = icmp eq ptr %8, null
  br i1 %.not, label %.sink.split, label %9, !prof !70

9:                                                ; preds = %2
  %10 = getelementptr inbounds nuw i8, ptr %0, i64 912
  %11 = load ptr, ptr %10, align 8, !tbaa !71
  %12 = getelementptr inbounds nuw i8, ptr %0, i64 872
  %13 = load ptr, ptr %12, align 8, !tbaa !72
  %14 = tail call i32 @EVP_MD_get_size(ptr noundef nonnull %8) #8
  %15 = icmp slt i32 %14, 1
  br i1 %15, label %.sink.split, label %16

16:                                               ; preds = %9
  %17 = zext nneg i32 %14 to i64
  %18 = tail call i32 @EVP_CIPHER_get_key_length(ptr noundef %6) #8
  %19 = sext i32 %18 to i64
  %20 = tail call i32 @EVP_CIPHER_get_iv_length(ptr noundef %6) #8
  %21 = sext i32 %20 to i64
  switch i32 %1, label %28 [
    i32 33, label %22
    i32 18, label %22
  ]

22:                                               ; preds = %16, %16
  %23 = shl nuw nsw i64 %17, 1
  %24 = add nsw i64 %19, %17
  %25 = shl nsw i64 %24, 1
  %26 = add nsw i64 %24, %21
  %27 = shl nsw i64 %26, 1
  br label %34

28:                                               ; preds = %16
  %29 = getelementptr inbounds nuw i8, ptr %13, i64 %17
  %reass.add = shl nuw nsw i64 %17, 1
  %30 = add nsw i64 %reass.add, %19
  %31 = add nsw i64 %21, %19
  %32 = add nsw i64 %31, %30
  %33 = add nsw i64 %32, %21
  br label %34

34:                                               ; preds = %28, %22
  %.pn = phi i64 [ %25, %22 ], [ %32, %28 ]
  %.060 = phi i64 [ %27, %22 ], [ %33, %28 ]
  %.pn64 = phi i64 [ %23, %22 ], [ %30, %28 ]
  %.058 = phi ptr [ %13, %22 ], [ %29, %28 ]
  %35 = getelementptr inbounds nuw i8, ptr %0, i64 864
  %36 = load i64, ptr %35, align 8, !tbaa !73
  %37 = icmp ugt i64 %.060, %36
  br i1 %37, label %.sink.split, label %38

38:                                               ; preds = %34
  %.059 = getelementptr inbounds nuw i8, ptr %13, i64 %.pn64
  %.061 = getelementptr inbounds nuw i8, ptr %13, i64 %.pn
  %39 = tail call i32 @ssl_set_new_record_layer(ptr noundef nonnull %0, i32 noundef 768, i32 noundef %4, i32 noundef 3, ptr noundef null, i64 noundef 0, ptr noundef %.059, i64 noundef %19, ptr noundef %.061, i64 noundef %21, ptr noundef %.058, i64 noundef %17, ptr noundef %6, i64 noundef 0, i32 noundef 0, ptr noundef nonnull %8, ptr noundef %11, ptr noundef null) #8
  %.not65 = icmp eq i32 %39, 0
  br i1 %.not65, label %40, label %41

.sink.split:                                      ; preds = %34, %9, %2
  %.sink = phi i32 [ 108, %2 ], [ 118, %9 ], [ 144, %34 ]
  tail call void @ERR_new() #8
  tail call void @ERR_set_debug(ptr noundef nonnull @.str, i32 noundef %.sink, ptr noundef nonnull @__func__.ssl3_change_cipher_state) #8
  tail call void (ptr, i32, i32, ptr, ...) @ossl_statem_fatal(ptr noundef nonnull %0, i32 noundef 80, i32 noundef 786691, ptr noundef null) #8
  br label %40

40:                                               ; preds = %.sink.split, %38
  br label %41

41:                                               ; preds = %38, %40
  %.0 = phi i32 [ 0, %40 ], [ 1, %38 ]
  ret i32 %.0
}